; Function Attrs: mustprogress uwtable
define internal fastcc void @_ZN5arrow12_GLOBAL__N_114NonZeroCounter5VisitERKNS_8DataTypeE(ptr noalias align 8 %agg.result, ptr noundef nonnull align 8 dereferenceable(72) %type) unnamed_addr #0 align 2 personality ptr @__gxx_personality_v0 {
entry:
  %ref.tmp5 = alloca %"class.arrow::util::ArrowLog", align 8
  %ref.tmp10 = alloca %"class.std::__cxx11::basic_string", align 8
  %id_.i = getelementptr inbounds i8, ptr %type, i64 40
  %0 = load i32, ptr %id_.i, align 8
  %type_id.off.i = add i32 %0, -2
  %switch.i = icmp ult i32 %type_id.off.i, 11
  br i1 %switch.i, label %cond.false, label %cleanup.done

cond.false:                                       ; preds = %entry
  call void @_ZN5arrow4util8ArrowLogC1EPKciNS0_13ArrowLogLevelE(ptr noundef nonnull align 8 dereferenceable(17) %ref.tmp5, ptr noundef nonnull @.str.3, i32 noundef 326, i32 noundef 3)
  %vtable.i = load ptr, ptr %ref.tmp5, align 8
  %vfn.i = getelementptr inbounds i8, ptr %vtable.i, i64 16
  %1 = load ptr, ptr %vfn.i, align 8
  %call.i3 = invoke noundef zeroext i1 %1(ptr noundef nonnull align 8 dereferenceable(8) %ref.tmp5)
          to label %call.i.noexc unwind label %lpad

call.i.noexc:                                     ; preds = %cond.false
  br i1 %call.i3, label %if.then.i, label %cleanup.action

if.then.i:                                        ; preds = %call.i.noexc
  %vtable2.i = load ptr, ptr %ref.tmp5, align 8
  %vfn3.i = getelementptr inbounds i8, ptr %vtable2.i, i64 24
  %2 = load ptr, ptr %vfn3.i, align 8
  %call4.i4 = invoke noundef nonnull align 8 dereferenceable(8) ptr %2(ptr noundef nonnull align 8 dereferenceable(8) %ref.tmp5)
          to label %call4.i.noexc unwind label %lpad

call4.i.noexc:                                    ; preds = %if.then.i
  %call5.i5 = invoke noundef nonnull align 8 dereferenceable(8) ptr @_ZStlsISt11char_traitsIcEERSt13basic_ostreamIcT_ES5_PKc(ptr noundef nonnull align 8 dereferenceable(8) %call4.i4, ptr noundef nonnull @.str.25)
          to label %cleanup.action unwind label %lpad

cleanup.action:                                   ; preds = %call4.i.noexc, %call.i.noexc
  call void @_ZN5arrow4util8ArrowLogD1Ev(ptr noundef nonnull align 8 dereferenceable(17) %ref.tmp5) #22
  br label %cleanup.done

cleanup.done:                                     ; preds = %entry, %cleanup.action
  %vtable = load ptr, ptr %type, align 8
  %vfn = getelementptr inbounds i8, ptr %vtable, i64 32
  %3 = load ptr, ptr %vfn, align 8
  call void %3(ptr nonnull sret(%"class.std::__cxx11::basic_string") align 8 %ref.tmp10, ptr noundef nonnull align 8 dereferenceable(72) %type)
  invoke void @_ZN5arrow6Status8FromArgsIJRA11_KcNSt7__cxx1112basic_stringIcSt11char_traitsIcESaIcEEERA20_S2_EEES0_NS_10StatusCodeEDpOT_(ptr sret(%"class.arrow::Status") align 8 %agg.result, i8 noundef signext 10, ptr noundef nonnull align 1 dereferenceable(11) @.str.26, ptr noundef nonnull align 8 dereferenceable(32) %ref.tmp10, ptr noundef nonnull align 1 dereferenceable(20) @.str.27)
          to label %invoke.cont12 unwind label %lpad11

invoke.cont12:                                    ; preds = %cleanup.done
  call void @_ZNSt7__cxx1112basic_stringIcSt11char_traitsIcESaIcEED1Ev(ptr noundef nonnull align 8 dereferenceable(32) %ref.tmp10) #22
  ret void

lpad:                                             ; preds = %call4.i.noexc, %if.then.i, %cond.false
  %4 = landingpad { ptr, i32 }
          cleanup
  call void @_ZN5arrow4util8ArrowLogD1Ev(ptr noundef nonnull align 8 dereferenceable(17) %ref.tmp5) #22
  br label %eh.resume

lpad11:                                           ; preds = %cleanup.done
  %5 = landingpad { ptr, i32 }
          cleanup
  call void @_ZNSt7__cxx1112basic_stringIcSt11char_traitsIcESaIcEED1Ev(ptr noundef nonnull align 8 dereferenceable(32) %ref.tmp10) #22
  br label %eh.resume

eh.resume:                                        ; preds = %lpad, %lpad11
  %.pn = phi { ptr, i32 } [ %5, %lpad11 ], [ %4, %lpad ]
  resume { ptr, i32 } %.pn
}